target datalayout = "e-m:e-p270:32:32-p271:32:32-p272:64:64-i64:64-i128:128-f80:128-n8:16:32:64-S128"
target triple = "x86_64-pc-linux-gnu"

@base_yyout = external global ptr, align 8
@.str.7 = private unnamed_addr constant [36 x i8] c"{ ECPGdo(__LINE__, %d, %d, %s, %d, \00", align 1
@compat = external global i32, align 4
@force_indicator = external global i8, align 1
@connection = external global ptr, align 8
@.str.8 = private unnamed_addr constant [5 x i8] c"NULL\00", align 1
@questionmarks = external global i8, align 1
@auto_prepare = external global i8, align 1
@.str.9 = private unnamed_addr constant [5 x i8] c"%s, \00", align 1
@ecpg_statement_type_name = internal global [6 x ptr] [ptr @.str.27, ptr @.str.28, ptr @.str.29, ptr @.str.30, ptr @.str.31, ptr @.str.32], align 16
@.str.10 = private unnamed_addr constant [2 x i8] c"\22\00", align 1
@.str.11 = private unnamed_addr constant [4 x i8] c"\22, \00", align 1
@argsinsert = external global ptr, align 8
@.str.12 = private unnamed_addr constant [13 x i8] c"ECPGt_EOIT, \00", align 1
@argsresult = external global ptr, align 8
@.str.13 = private unnamed_addr constant [13 x i8] c"ECPGt_EORT);\00", align 1

; Function Attrs: nounwind uwtable
define dso_local void @output_statement(ptr noundef %0, i32 noundef %1, i32 noundef %2) #0 {
  %4 = alloca ptr, align 8
  %5 = alloca i32, align 4
  %6 = alloca i32, align 4
  store ptr %0, ptr %4, align 8
  store i32 %1, ptr %5, align 4
  store i32 %2, ptr %6, align 4
  %7 = load ptr, ptr @base_yyout, align 8
  %8 = load i32, ptr @compat, align 4
  %9 = load i8, ptr @force_indicator, align 1, !range !6, !noundef !7
  %10 = trunc i8 %9 to i1
  %11 = zext i1 %10 to i32
  %12 = load ptr, ptr @connection, align 8
  %13 = icmp ne ptr %12, null
  br i1 %13, label %14, label %16

14:                                               ; preds = %3
  %15 = load ptr, ptr @connection, align 8
  br label %17

16:                                               ; preds = %3
  br label %17

17:                                               ; preds = %16, %14
  %18 = phi ptr [ %15, %14 ], [ @.str.8, %16 ]
  %19 = load i8, ptr @questionmarks, align 1, !range !6, !noundef !7
  %20 = trunc i8 %19 to i1
  %21 = zext i1 %20 to i32
  %22 = call i32 (ptr, ptr, ...) @pg_fprintf(ptr noundef %7, ptr noundef @.str.7, i32 noundef %8, i32 noundef %11, ptr noundef %18, i32 noundef %21)
  %23 = load i32, ptr %6, align 4
  %24 = icmp eq i32 %23, 3
  br i1 %24, label %25, label %29

25:                                               ; preds = %17
  %26 = load i8, ptr @auto_prepare, align 1, !range !6, !noundef !7
  %27 = trunc i8 %26 to i1
  br i1 %27, label %29, label %28

28:                                               ; preds = %25
  store i32 0, ptr %6, align 4
  br label %29

29:                                               ; preds = %28, %25, %17
  %30 = load ptr, ptr @base_yyout, align 8
  %31 = load i32, ptr %6, align 4
  %32 = zext i32 %31 to i64
  %33 = getelementptr inbounds nuw [6 x ptr], ptr @ecpg_statement_type_name, i64 0, i64 %32
  %34 = load ptr, ptr %33, align 8
  %35 = call i32 (ptr, ptr, ...) @pg_fprintf(ptr noundef %30, ptr noundef @.str.9, ptr noundef %34)
  %36 = load i32, ptr %6, align 4
  %37 = icmp eq i32 %36, 1
  br i1 %37, label %41, label %38

38:                                               ; preds = %29
  %39 = load i32, ptr %6, align 4
  %40 = icmp eq i32 %39, 2
  br i1 %40, label %41, label %45

41:                                               ; preds = %38, %29
  %42 = load ptr, ptr @base_yyout, align 8
  %43 = load ptr, ptr %4, align 8
  %44 = call i32 (ptr, ptr, ...) @pg_fprintf(ptr noundef %42, ptr noundef @.str.9, ptr noundef %43)
  br label %51

45:                                               ; preds = %38
  %46 = load ptr, ptr @base_yyout, align 8
  %47 = call i32 @fputs(ptr noundef @.str.10, ptr noundef %46)
  %48 = load ptr, ptr %4, align 8
  call void @output_escaped_str(ptr noundef %48, i1 noundef zeroext false)
  %49 = load ptr, ptr @base_yyout, align 8
  %50 = call i32 @fputs(ptr noundef @.str.11, ptr noundef %49)
  br label %51

51:                                               ; preds = %45, %41
  %52 = load ptr, ptr @argsinsert, align 8
  call void @dump_variables(ptr noundef %52, i32 noundef 1)
  store ptr null, ptr @argsinsert, align 8
  %53 = load ptr, ptr @base_yyout, align 8
  %54 = call i32 @fputs(ptr noundef @.str.12, ptr noundef %53)
  %55 = load ptr, ptr @argsresult, align 8
  call void @dump_variables(ptr noundef %55, i32 noundef 1)
  store ptr null, ptr @argsresult, align 8
  %56 = load ptr, ptr @base_yyout, align 8
  %57 = call i32 @fputs(ptr noundef @.str.13, ptr noundef %56)
  %58 = load i32, ptr %5, align 4
  %59 = or i32 %58, 2
  call void @whenever_action(i32 noundef %59)
  ret void
}