; Function Attrs: nounwind uwtable
define dso_local void @output_statement(ptr noundef %0, i32 noundef %1, i32 noundef %2) local_unnamed_addr #0 {
  %4 = load ptr, ptr @base_yyout, align 8
  %5 = load i32, ptr @compat, align 4
  %6 = load i8, ptr @force_indicator, align 1, !range !7, !noundef !8
  %7 = zext nneg i8 %6 to i32
  %8 = load ptr, ptr @connection, align 8
  %.not = icmp eq ptr %8, null
  %9 = select i1 %.not, ptr @.str.8, ptr %8
  %10 = load i8, ptr @questionmarks, align 1, !range !7, !noundef !8
  %11 = zext nneg i8 %10 to i32
  %12 = tail call i32 (ptr, ptr, ...) @pg_fprintf(ptr noundef %4, ptr noundef nonnull @.str.7, i32 noundef %5, i32 noundef %7, ptr noundef nonnull %9, i32 noundef %11) #7
  %13 = icmp eq i32 %2, 3
  %14 = load i8, ptr @auto_prepare, align 1, !range !7
  %15 = trunc nuw i8 %14 to i1
  %spec.select = select i1 %15, i32 3, i32 0
  %.0 = select i1 %13, i32 %spec.select, i32 %2
  %16 = load ptr, ptr @base_yyout, align 8
  %17 = zext i32 %.0 to i64
  %18 = getelementptr inbounds nuw [6 x ptr], ptr @ecpg_statement_type_name, i64 0, i64 %17
  %19 = load ptr, ptr %18, align 8
  %20 = tail call i32 (ptr, ptr, ...) @pg_fprintf(ptr noundef %16, ptr noundef nonnull @.str.9, ptr noundef %19) #7
  %21 = add i32 %.0, -1
  %or.cond = icmp ult i32 %21, 2
  %22 = load ptr, ptr @base_yyout, align 8
  br i1 %or.cond, label %23, label %25

23:                                               ; preds = %3
  %24 = tail call i32 (ptr, ptr, ...) @pg_fprintf(ptr noundef %22, ptr noundef nonnull @.str.9, ptr noundef %0) #7
  br label %28

25:                                               ; preds = %3
  %fputc = tail call i32 @fputc(i32 34, ptr %22)
  tail call fastcc void @output_escaped_str(ptr noundef %0, i1 noundef zeroext false)
  %26 = load ptr, ptr @base_yyout, align 8
  %27 = tail call i64 @fwrite(ptr nonnull @.str.11, i64 3, i64 1, ptr %26)
  br label %28

28:                                               ; preds = %25, %23
  %29 = load ptr, ptr @argsinsert, align 8
  tail call void @dump_variables(ptr noundef %29, i32 noundef 1) #7
  store ptr null, ptr @argsinsert, align 8
  %30 = load ptr, ptr @base_yyout, align 8
  %31 = tail call i64 @fwrite(ptr nonnull @.str.12, i64 12, i64 1, ptr %30)
  %32 = load ptr, ptr @argsresult, align 8
  tail call void @dump_variables(ptr noundef %32, i32 noundef 1) #7
  store ptr null, ptr @argsresult, align 8
  %33 = load ptr, ptr @base_yyout, align 8
  %34 = tail call i64 @fwrite(ptr nonnull @.str.13, i64 12, i64 1, ptr %33)
  %35 = or i32 %1, 2
  tail call void @whenever_action(i32 noundef %35)
  ret void
}